; ModuleID = '53/301.c'
source_filename = "53/301.c"
target datalayout = "e-m:e-p270:32:32-p271:32:32-p272:64:64-i64:64-f80:128-n8:16:32:64-S128"
target triple = "x86_64-pc-linux-gnu"

@.str = private unnamed_addr constant [4 x i8] c"%d\0A\00", align 1
@.str.1 = private unnamed_addr constant [3 x i8] c"%d\00", align 1
@.str.2 = private unnamed_addr constant [4 x i8] c"%d,\00", align 1

; Function Attrs: noinline nounwind uwtable
define dso_local void @main() #0 {
  %1 = alloca i32, align 4
  %2 = alloca i32, align 4
  %3 = alloca i32, align 4
  %4 = alloca i32, align 4
  %5 = alloca i8*, align 8
  %6 = alloca i64, align 8
  %7 = alloca i64, align 8
  %8 = alloca i32, align 4
  %9 = call i32 (i8*, ...) @__isoc99_scanf(i8* getelementptr inbounds ([4 x i8], [4 x i8]* @.str, i64 0, i64 0), i32* %1)
  %10 = load i32, i32* %1, align 4
  %11 = zext i32 %10 to i64
  %12 = call i8* @llvm.stacksave()
  store i8* %12, i8** %5, align 8
  %13 = alloca i32, i64 %11, align 16
  store i64 %11, i64* %6, align 8
  store i32 0, i32* %2, align 4
  br label %14

14:                                               ; preds = %23, %0
  %15 = load i32, i32* %2, align 4
  %16 = load i32, i32* %1, align 4
  %17 = icmp slt i32 %15, %16
  br i1 %17, label %18, label %26

18:                                               ; preds = %14
  %19 = load i32, i32* %2, align 4
  %20 = sext i32 %19 to i64
  %21 = getelementptr inbounds i32, i32* %13, i64 %20
  %22 = call i32 (i8*, ...) @__isoc99_scanf(i8* getelementptr inbounds ([3 x i8], [3 x i8]* @.str.1, i64 0, i64 0), i32* %21)
  br label %23

23:                                               ; preds = %18
  %24 = load i32, i32* %2, align 4
  %25 = add nsw i32 %24, 1
  store i32 %25, i32* %2, align 4
  br label %14

26:                                               ; preds = %14
  %27 = load i32, i32* %1, align 4
  store i32 %27, i32* %4, align 4
  store i32 0, i32* %2, align 4
  br label %28

28:                                               ; preds = %66, %26
  %29 = load i32, i32* %2, align 4
  %30 = load i32, i32* %1, align 4
  %31 = icmp slt i32 %29, %30
  br i1 %31, label %32, label %69

32:                                               ; preds = %28
  %33 = load i32, i32* %2, align 4
  %34 = add nsw i32 %33, 1
  store i32 %34, i32* %3, align 4
  br label %35

35:                                               ; preds = %62, %32
  %36 = load i32, i32* %3, align 4
  %37 = load i32, i32* %1, align 4
  %38 = icmp slt i32 %36, %37
  br i1 %38, label %39, label %65

39:                                               ; preds = %35
  %40 = load i32, i32* %3, align 4
  %41 = sext i32 %40 to i64
  %42 = getelementptr inbounds i32, i32* %13, i64 %41
  %43 = load i32, i32* %42, align 4
  %44 = load i32, i32* %2, align 4
  %45 = sext i32 %44 to i64
  %46 = getelementptr inbounds i32, i32* %13, i64 %45
  %47 = load i32, i32* %46, align 4
  %48 = icmp eq i32 %43, %47
  br i1 %48, label %49, label %61

49:                                               ; preds = %39
  %50 = load i32, i32* %3, align 4
  %51 = sub nsw i32 0, %50
  %52 = mul nsw i32 %51, 2
  %53 = mul nsw i32 %52, 2
  %54 = mul nsw i32 %53, 2
  %55 = mul nsw i32 %54, 2
  %56 = load i32, i32* %3, align 4
  %57 = sext i32 %56 to i64
  %58 = getelementptr inbounds i32, i32* %13, i64 %57
  store i32 %55, i32* %58, align 4
  %59 = load i32, i32* %4, align 4
  %60 = add nsw i32 %59, -1
  store i32 %60, i32* %4, align 4
  br label %61

61:                                               ; preds = %49, %39
  br label %62

62:                                               ; preds = %61
  %63 = load i32, i32* %3, align 4
  %64 = add nsw i32 %63, 1
  store i32 %64, i32* %3, align 4
  br label %35

65:                                               ; preds = %35
  br label %66

66:                                               ; preds = %65
  %67 = load i32, i32* %2, align 4
  %68 = add nsw i32 %67, 1
  store i32 %68, i32* %2, align 4
  br label %28

69:                                               ; preds = %28
  %70 = load i32, i32* %4, align 4
  %71 = zext i32 %70 to i64
  %72 = alloca i32, i64 %71, align 16
  store i64 %71, i64* %7, align 8
  %73 = getelementptr inbounds i32, i32* %13, i64 0
  %74 = load i32, i32* %73, align 16
  %75 = getelementptr inbounds i32, i32* %72, i64 0
  store i32 %74, i32* %75, align 16
  store i32 1, i32* %3, align 4
  store i32 1, i32* %2, align 4
  br label %76

76:                                               ; preds = %97, %69
  %77 = load i32, i32* %3, align 4
  %78 = load i32, i32* %1, align 4
  %79 = icmp slt i32 %77, %78
  br i1 %79, label %80, label %100

80:                                               ; preds = %76
  %81 = load i32, i32* %3, align 4
  %82 = sext i32 %81 to i64
  %83 = getelementptr inbounds i32, i32* %13, i64 %82
  %84 = load i32, i32* %83, align 4
  %85 = icmp sgt i32 %84, 0
  br i1 %85, label %86, label %96

86:                                               ; preds = %80
  %87 = load i32, i32* %3, align 4
  %88 = sext i32 %87 to i64
  %89 = getelementptr inbounds i32, i32* %13, i64 %88
  %90 = load i32, i32* %89, align 4
  %91 = load i32, i32* %2, align 4
  %92 = sext i32 %91 to i64
  %93 = getelementptr inbounds i32, i32* %72, i64 %92
  store i32 %90, i32* %93, align 4
  %94 = load i32, i32* %2, align 4
  %95 = add nsw i32 %94, 1
  store i32 %95, i32* %2, align 4
  br label %96

96:                                               ; preds = %86, %80
  br label %97

97:                                               ; preds = %96
  %98 = load i32, i32* %3, align 4
  %99 = add nsw i32 %98, 1
  store i32 %99, i32* %3, align 4
  br label %76

100:                                              ; preds = %76
  %101 = load i32, i32* %4, align 4
  %102 = sub nsw i32 %101, 1
  store i32 %102, i32* %8, align 4
  store i32 0, i32* %2, align 4
  br label %103

103:                                              ; preds = %113, %100
  %104 = load i32, i32* %2, align 4
  %105 = load i32, i32* %8, align 4
  %106 = icmp slt i32 %104, %105
  br i1 %106, label %107, label %116

107:                                              ; preds = %103
  %108 = load i32, i32* %2, align 4
  %109 = sext i32 %108 to i64
  %110 = getelementptr inbounds i32, i32* %72, i64 %109
  %111 = load i32, i32* %110, align 4
  %112 = call i32 (i8*, ...) @printf(i8* getelementptr inbounds ([4 x i8], [4 x i8]* @.str.2, i64 0, i64 0), i32 %111)
  br label %113

113:                                              ; preds = %107
  %114 = load i32, i32* %2, align 4
  %115 = add nsw i32 %114, 1
  store i32 %115, i32* %2, align 4
  br label %103

116:                                              ; preds = %103
  %117 = load i32, i32* %4, align 4
  %118 = sub nsw i32 %117, 1
  %119 = sext i32 %118 to i64
  %120 = getelementptr inbounds i32, i32* %72, i64 %119
  %121 = load i32, i32* %120, align 4
  %122 = call i32 (i8*, ...) @printf(i8* getelementptr inbounds ([4 x i8], [4 x i8]* @.str, i64 0, i64 0), i32 %121)
  %123 = load i8*, i8** %5, align 8
  call void @llvm.stackrestore(i8* %123)
  ret void
}

declare dso_local i32 @__isoc99_scanf(i8*, ...) #1

; Function Attrs: nounwind
declare i8* @llvm.stacksave() #2

declare dso_local i32 @printf(i8*, ...) #1

; Function Attrs: nounwind
declare void @llvm.stackrestore(i8*) #2


!llvm.module.flags = !{!0}
!llvm.ident = !{!1}

!0 = !{i32 1, !"wchar_size", i32 4}
!1 = !{!"clang version 10.0.0-4ubuntu1 "}
